; ModuleID = '32/616.c'
source_filename = "32/616.c"
target datalayout = "e-m:e-p270:32:32-p271:32:32-p272:64:64-i64:64-f80:128-n8:16:32:64-S128"
target triple = "x86_64-pc-linux-gnu"

@.str = private unnamed_addr constant [3 x i8] c"%d\00", align 1
@.str.1 = private unnamed_addr constant [3 x i8] c"%s\00", align 1
@.str.2 = private unnamed_addr constant [2 x i8] c"\0A\00", align 1

; Function Attrs: noinline nounwind uwtable
define dso_local void @main() #0 {
  %1 = alloca i32, align 4
  %2 = alloca i32, align 4
  %3 = alloca i32, align 4
  %4 = alloca i32, align 4
  %5 = alloca i32, align 4
  %6 = alloca [100 x i32], align 16
  %7 = alloca [100 x i8], align 16
  %8 = alloca [100 x i8], align 16
  %9 = call i32 (i8*, ...) @__isoc99_scanf(i8* getelementptr inbounds ([3 x i8], [3 x i8]* @.str, i64 0, i64 0), i32* %1)
  store i32 0, i32* %2, align 4
  br label %10

10:                                               ; preds = %195, %0
  %11 = load i32, i32* %2, align 4
  %12 = load i32, i32* %1, align 4
  %13 = icmp slt i32 %11, %12
  br i1 %13, label %14, label %198

14:                                               ; preds = %10
  %15 = getelementptr inbounds [100 x i8], [100 x i8]* %7, i64 0, i64 0
  %16 = call i32 (i8*, ...) @__isoc99_scanf(i8* getelementptr inbounds ([3 x i8], [3 x i8]* @.str.1, i64 0, i64 0), i8* %15)
  %17 = getelementptr inbounds [100 x i8], [100 x i8]* %8, i64 0, i64 0
  %18 = call i32 (i8*, ...) @__isoc99_scanf(i8* getelementptr inbounds ([3 x i8], [3 x i8]* @.str.1, i64 0, i64 0), i8* %17)
  %19 = getelementptr inbounds [100 x i8], [100 x i8]* %7, i64 0, i64 0
  %20 = call i64 @strlen(i8* %19) #3
  %21 = trunc i64 %20 to i32
  store i32 %21, i32* %4, align 4
  %22 = getelementptr inbounds [100 x i8], [100 x i8]* %8, i64 0, i64 0
  %23 = call i64 @strlen(i8* %22) #3
  %24 = trunc i64 %23 to i32
  store i32 %24, i32* %5, align 4
  store i32 0, i32* %3, align 4
  br label %25

25:                                               ; preds = %170, %14
  %26 = load i32, i32* %3, align 4
  %27 = load i32, i32* %4, align 4
  %28 = icmp slt i32 %26, %27
  br i1 %28, label %29, label %173

29:                                               ; preds = %25
  %30 = load i32, i32* %3, align 4
  %31 = load i32, i32* %4, align 4
  %32 = load i32, i32* %5, align 4
  %33 = sub nsw i32 %31, %32
  %34 = icmp slt i32 %30, %33
  br i1 %34, label %35, label %45

35:                                               ; preds = %29
  %36 = load i32, i32* %3, align 4
  %37 = sext i32 %36 to i64
  %38 = getelementptr inbounds [100 x i8], [100 x i8]* %7, i64 0, i64 %37
  %39 = load i8, i8* %38, align 1
  %40 = sext i8 %39 to i32
  %41 = sub nsw i32 %40, 48
  %42 = load i32, i32* %3, align 4
  %43 = sext i32 %42 to i64
  %44 = getelementptr inbounds [100 x i32], [100 x i32]* %6, i64 0, i64 %43
  store i32 %41, i32* %44, align 4
  br label %169

45:                                               ; preds = %29
  %46 = load i32, i32* %3, align 4
  %47 = sext i32 %46 to i64
  %48 = getelementptr inbounds [100 x i8], [100 x i8]* %7, i64 0, i64 %47
  %49 = load i8, i8* %48, align 1
  %50 = sext i8 %49 to i32
  %51 = load i32, i32* %3, align 4
  %52 = load i32, i32* %5, align 4
  %53 = add nsw i32 %51, %52
  %54 = load i32, i32* %4, align 4
  %55 = sub nsw i32 %53, %54
  %56 = sext i32 %55 to i64
  %57 = getelementptr inbounds [100 x i8], [100 x i8]* %8, i64 0, i64 %56
  %58 = load i8, i8* %57, align 1
  %59 = sext i8 %58 to i32
  %60 = icmp sge i32 %50, %59
  br i1 %60, label %61, label %80

61:                                               ; preds = %45
  %62 = load i32, i32* %3, align 4
  %63 = sext i32 %62 to i64
  %64 = getelementptr inbounds [100 x i8], [100 x i8]* %7, i64 0, i64 %63
  %65 = load i8, i8* %64, align 1
  %66 = sext i8 %65 to i32
  %67 = load i32, i32* %3, align 4
  %68 = load i32, i32* %5, align 4
  %69 = add nsw i32 %67, %68
  %70 = load i32, i32* %4, align 4
  %71 = sub nsw i32 %69, %70
  %72 = sext i32 %71 to i64
  %73 = getelementptr inbounds [100 x i8], [100 x i8]* %8, i64 0, i64 %72
  %74 = load i8, i8* %73, align 1
  %75 = sext i8 %74 to i32
  %76 = sub nsw i32 %66, %75
  %77 = load i32, i32* %3, align 4
  %78 = sext i32 %77 to i64
  %79 = getelementptr inbounds [100 x i32], [100 x i32]* %6, i64 0, i64 %78
  store i32 %76, i32* %79, align 4
  br label %168

80:                                               ; preds = %45
  %81 = load i32, i32* %3, align 4
  %82 = sext i32 %81 to i64
  %83 = getelementptr inbounds [100 x i8], [100 x i8]* %7, i64 0, i64 %82
  %84 = load i8, i8* %83, align 1
  %85 = sext i8 %84 to i32
  %86 = add nsw i32 %85, 10
  %87 = load i32, i32* %3, align 4
  %88 = load i32, i32* %5, align 4
  %89 = add nsw i32 %87, %88
  %90 = load i32, i32* %4, align 4
  %91 = sub nsw i32 %89, %90
  %92 = sext i32 %91 to i64
  %93 = getelementptr inbounds [100 x i8], [100 x i8]* %8, i64 0, i64 %92
  %94 = load i8, i8* %93, align 1
  %95 = sext i8 %94 to i32
  %96 = sub nsw i32 %86, %95
  %97 = load i32, i32* %3, align 4
  %98 = sext i32 %97 to i64
  %99 = getelementptr inbounds [100 x i32], [100 x i32]* %6, i64 0, i64 %98
  store i32 %96, i32* %99, align 4
  %100 = load i32, i32* %3, align 4
  %101 = sub nsw i32 %100, 1
  %102 = sext i32 %101 to i64
  %103 = getelementptr inbounds [100 x i32], [100 x i32]* %6, i64 0, i64 %102
  %104 = load i32, i32* %103, align 4
  %105 = icmp ne i32 %104, 0
  br i1 %105, label %106, label %117

106:                                              ; preds = %80
  %107 = load i32, i32* %3, align 4
  %108 = sub nsw i32 %107, 1
  %109 = sext i32 %108 to i64
  %110 = getelementptr inbounds [100 x i32], [100 x i32]* %6, i64 0, i64 %109
  %111 = load i32, i32* %110, align 4
  %112 = sub nsw i32 %111, 1
  %113 = load i32, i32* %3, align 4
  %114 = sub nsw i32 %113, 1
  %115 = sext i32 %114 to i64
  %116 = getelementptr inbounds [100 x i32], [100 x i32]* %6, i64 0, i64 %115
  store i32 %112, i32* %116, align 4
  br label %167

117:                                              ; preds = %80
  %118 = load i32, i32* %3, align 4
  %119 = sub nsw i32 %118, 2
  %120 = sext i32 %119 to i64
  %121 = getelementptr inbounds [100 x i32], [100 x i32]* %6, i64 0, i64 %120
  %122 = load i32, i32* %121, align 4
  %123 = icmp ne i32 %122, 0
  br i1 %123, label %124, label %139

124:                                              ; preds = %117
  %125 = load i32, i32* %3, align 4
  %126 = sub nsw i32 %125, 1
  %127 = sext i32 %126 to i64
  %128 = getelementptr inbounds [100 x i32], [100 x i32]* %6, i64 0, i64 %127
  store i32 9, i32* %128, align 4
  %129 = load i32, i32* %3, align 4
  %130 = sub nsw i32 %129, 2
  %131 = sext i32 %130 to i64
  %132 = getelementptr inbounds [100 x i32], [100 x i32]* %6, i64 0, i64 %131
  %133 = load i32, i32* %132, align 4
  %134 = sub nsw i32 %133, 1
  %135 = load i32, i32* %3, align 4
  %136 = sub nsw i32 %135, 2
  %137 = sext i32 %136 to i64
  %138 = getelementptr inbounds [100 x i32], [100 x i32]* %6, i64 0, i64 %137
  store i32 %134, i32* %138, align 4
  br label %166

139:                                              ; preds = %117
  %140 = load i32, i32* %3, align 4
  %141 = sub nsw i32 %140, 3
  %142 = sext i32 %141 to i64
  %143 = getelementptr inbounds [100 x i32], [100 x i32]* %6, i64 0, i64 %142
  %144 = load i32, i32* %143, align 4
  %145 = icmp ne i32 %144, 0
  br i1 %145, label %146, label %165

146:                                              ; preds = %139
  %147 = load i32, i32* %3, align 4
  %148 = sub nsw i32 %147, 1
  %149 = sext i32 %148 to i64
  %150 = getelementptr inbounds [100 x i32], [100 x i32]* %6, i64 0, i64 %149
  store i32 9, i32* %150, align 4
  %151 = load i32, i32* %3, align 4
  %152 = sub nsw i32 %151, 2
  %153 = sext i32 %152 to i64
  %154 = getelementptr inbounds [100 x i32], [100 x i32]* %6, i64 0, i64 %153
  store i32 9, i32* %154, align 4
  %155 = load i32, i32* %3, align 4
  %156 = sub nsw i32 %155, 3
  %157 = sext i32 %156 to i64
  %158 = getelementptr inbounds [100 x i32], [100 x i32]* %6, i64 0, i64 %157
  %159 = load i32, i32* %158, align 4
  %160 = sub nsw i32 %159, 1
  %161 = load i32, i32* %3, align 4
  %162 = sub nsw i32 %161, 3
  %163 = sext i32 %162 to i64
  %164 = getelementptr inbounds [100 x i32], [100 x i32]* %6, i64 0, i64 %163
  store i32 %160, i32* %164, align 4
  br label %165

165:                                              ; preds = %146, %139
  br label %166

166:                                              ; preds = %165, %124
  br label %167

167:                                              ; preds = %166, %106
  br label %168

168:                                              ; preds = %167, %61
  br label %169

169:                                              ; preds = %168, %35
  br label %170

170:                                              ; preds = %169
  %171 = load i32, i32* %3, align 4
  %172 = add nsw i32 %171, 1
  store i32 %172, i32* %3, align 4
  br label %25

173:                                              ; preds = %25
  store i32 0, i32* %3, align 4
  br label %174

174:                                              ; preds = %191, %173
  %175 = load i32, i32* %3, align 4
  %176 = load i32, i32* %4, align 4
  %177 = icmp slt i32 %175, %176
  br i1 %177, label %178, label %194

178:                                              ; preds = %174
  %179 = load i32, i32* %3, align 4
  %180 = sext i32 %179 to i64
  %181 = getelementptr inbounds [100 x i32], [100 x i32]* %6, i64 0, i64 %180
  %182 = load i32, i32* %181, align 4
  %183 = call i32 (i8*, ...) @printf(i8* getelementptr inbounds ([3 x i8], [3 x i8]* @.str, i64 0, i64 0), i32 %182)
  %184 = load i32, i32* %3, align 4
  %185 = load i32, i32* %4, align 4
  %186 = sub nsw i32 %185, 1
  %187 = icmp eq i32 %184, %186
  br i1 %187, label %188, label %190

188:                                              ; preds = %178
  %189 = call i32 (i8*, ...) @printf(i8* getelementptr inbounds ([2 x i8], [2 x i8]* @.str.2, i64 0, i64 0))
  br label %190

190:                                              ; preds = %188, %178
  br label %191

191:                                              ; preds = %190
  %192 = load i32, i32* %3, align 4
  %193 = add nsw i32 %192, 1
  store i32 %193, i32* %3, align 4
  br label %174

194:                                              ; preds = %174
  br label %195

195:                                              ; preds = %194
  %196 = load i32, i32* %2, align 4
  %197 = add nsw i32 %196, 1
  store i32 %197, i32* %2, align 4
  br label %10

198:                                              ; preds = %10
  ret void
}

declare dso_local i32 @__isoc99_scanf(i8*, ...) #1

; Function Attrs: nounwind readonly
declare dso_local i64 @strlen(i8*) #2

declare dso_local i32 @printf(i8*, ...) #1


!llvm.module.flags = !{!0}
!llvm.ident = !{!1}

!0 = !{i32 1, !"wchar_size", i32 4}
!1 = !{!"clang version 10.0.0-4ubuntu1 "}
